target datalayout = "e-m:e-p270:32:32-p271:32:32-p272:64:64-i64:64-i128:128-f80:128-n8:16:32:64-S128"
target triple = "x86_64-pc-linux-gnu"

%class.ns16550_t = type { %class.abstract_device_t, ptr, i32, i32, i32, %"class.std::queue", i8, i8, i8, i8, i8, i8, i8, i8, i8, i8, i32 }
%class.abstract_device_t = type { ptr }
%"class.std::queue" = type { %"class.std::deque" }
%"class.std::deque" = type { %"class.std::_Deque_base" }
%"class.std::_Deque_base" = type { %"struct.std::_Deque_base<unsigned char, std::allocator<unsigned char>>::_Deque_impl" }
%"struct.std::_Deque_base<unsigned char, std::allocator<unsigned char>>::_Deque_impl" = type { %"struct.std::_Deque_base<unsigned char, std::allocator<unsigned char>>::_Deque_impl_data" }
%"struct.std::_Deque_base<unsigned char, std::allocator<unsigned char>>::_Deque_impl_data" = type { ptr, i64, %"struct.std::_Deque_iterator", %"struct.std::_Deque_iterator" }
%"struct.std::_Deque_iterator" = type { ptr, ptr, ptr, ptr }

; Function Attrs: mustprogress nounwind uwtable
define linkonce_odr noundef ptr @_ZSt12construct_atIhJRKhEEDTgsnwcvPvLi0E_T_pispclsr3stdE7declvalIT0_EEEEPS3_DpOS4_(ptr noundef %0, ptr noundef nonnull align 1 dereferenceable(1) %1) #5 comdat {
  %3 = alloca ptr, align 8
  %4 = alloca ptr, align 8
  store ptr %0, ptr %3, align 8
  store ptr %1, ptr %4, align 8
  %5 = load ptr, ptr %3, align 8
  %6 = load ptr, ptr %4, align 8
  %7 = load i8, ptr %6, align 1
  store i8 %7, ptr %5, align 1
  ret ptr %5
}

; Function Attrs: mustprogress nounwind uwtable
define linkonce_odr void @_ZNSt16allocator_traitsISaIhEE9constructIhJRKhEEEvRS0_PT_DpOT0_(ptr noundef nonnull align 1 dereferenceable(1) %0, ptr noundef %1, ptr noundef nonnull align 1 dereferenceable(1) %2) #5 comdat align 2 {
  %4 = alloca ptr, align 8
  %5 = alloca ptr, align 8
  %6 = alloca ptr, align 8
  store ptr %0, ptr %4, align 8
  store ptr %1, ptr %5, align 8
  store ptr %2, ptr %6, align 8
  %7 = load ptr, ptr %5, align 8
  %8 = load ptr, ptr %6, align 8
  %9 = call noundef ptr @_ZSt12construct_atIhJRKhEEDTgsnwcvPvLi0E_T_pispclsr3stdE7declvalIT0_EEEEPS3_DpOS4_(ptr noundef %7, ptr noundef nonnull align 1 dereferenceable(1) %8) #3
  ret void
}

; Function Attrs: mustprogress uwtable
define linkonce_odr void @_ZNSt5dequeIhSaIhEE9push_backERKh(ptr noundef nonnull align 8 dereferenceable(80) %0, ptr noundef nonnull align 1 dereferenceable(1) %1) #4 comdat align 2 {
  %3 = alloca ptr, align 8
  %4 = alloca ptr, align 8
  store ptr %0, ptr %3, align 8
  store ptr %1, ptr %4, align 8
  %5 = load ptr, ptr %3, align 8
  %6 = getelementptr inbounds %"class.std::_Deque_base", ptr %5, i32 0, i32 0
  %7 = getelementptr inbounds %"struct.std::_Deque_base<unsigned char, std::allocator<unsigned char>>::_Deque_impl_data", ptr %6, i32 0, i32 3
  %8 = getelementptr inbounds %"struct.std::_Deque_iterator", ptr %7, i32 0, i32 0
  %9 = load ptr, ptr %8, align 8
  %10 = getelementptr inbounds %"class.std::_Deque_base", ptr %5, i32 0, i32 0
  %11 = getelementptr inbounds %"struct.std::_Deque_base<unsigned char, std::allocator<unsigned char>>::_Deque_impl_data", ptr %10, i32 0, i32 3
  %12 = getelementptr inbounds %"struct.std::_Deque_iterator", ptr %11, i32 0, i32 2
  %13 = load ptr, ptr %12, align 8
  %14 = getelementptr inbounds i8, ptr %13, i64 -1
  %15 = icmp ne ptr %9, %14
  br i1 %15, label %16, label %28

16:                                               ; preds = %2
  %17 = getelementptr inbounds %"class.std::_Deque_base", ptr %5, i32 0, i32 0
  %18 = getelementptr inbounds %"class.std::_Deque_base", ptr %5, i32 0, i32 0
  %19 = getelementptr inbounds %"struct.std::_Deque_base<unsigned char, std::allocator<unsigned char>>::_Deque_impl_data", ptr %18, i32 0, i32 3
  %20 = getelementptr inbounds %"struct.std::_Deque_iterator", ptr %19, i32 0, i32 0
  %21 = load ptr, ptr %20, align 8
  %22 = load ptr, ptr %4, align 8
  call void @_ZNSt16allocator_traitsISaIhEE9constructIhJRKhEEEvRS0_PT_DpOT0_(ptr noundef nonnull align 1 dereferenceable(1) %17, ptr noundef %21, ptr noundef nonnull align 1 dereferenceable(1) %22) #3
  %23 = getelementptr inbounds %"class.std::_Deque_base", ptr %5, i32 0, i32 0
  %24 = getelementptr inbounds %"struct.std::_Deque_base<unsigned char, std::allocator<unsigned char>>::_Deque_impl_data", ptr %23, i32 0, i32 3
  %25 = getelementptr inbounds %"struct.std::_Deque_iterator", ptr %24, i32 0, i32 0
  %26 = load ptr, ptr %25, align 8
  %27 = getelementptr inbounds i8, ptr %26, i32 1
  store ptr %27, ptr %25, align 8
  br label %30

28:                                               ; preds = %2
  %29 = load ptr, ptr %4, align 8
  call void @_ZNSt5dequeIhSaIhEE16_M_push_back_auxIJRKhEEEvDpOT_(ptr noundef nonnull align 8 dereferenceable(80) %5, ptr noundef nonnull align 1 dereferenceable(1) %29)
  br label %30

30:                                               ; preds = %28, %16
  ret void
}

; Function Attrs: mustprogress uwtable
define void @_ZN9ns16550_t7tx_byteEh(ptr noundef nonnull align 8 dereferenceable(128) %0, i8 noundef zeroext %1) #4 align 2 {
  %3 = alloca ptr, align 8
  %4 = alloca i8, align 1
  store ptr %0, ptr %3, align 8
  store i8 %1, ptr %4, align 1
  %5 = load ptr, ptr %3, align 8
  %6 = getelementptr inbounds %class.ns16550_t, ptr %5, i32 0, i32 13
  %7 = load i8, ptr %6, align 1
  %8 = zext i8 %7 to i32
  %9 = or i32 %8, 96
  %10 = trunc i32 %9 to i8
  store i8 %10, ptr %6, align 1
  %11 = load i8, ptr %4, align 1
  call void @_ZN20canonical_terminal_t5writeEc(i8 noundef signext %11)
  ret void
}

; Function Attrs: mustprogress uwtable
define linkonce_odr void @_ZNSt5queueIhSt5dequeIhSaIhEEE4pushERKh(ptr noundef nonnull align 8 dereferenceable(80) %0, ptr noundef nonnull align 1 dereferenceable(1) %1) #4 comdat align 2 {
  %3 = alloca ptr, align 8
  %4 = alloca ptr, align 8
  store ptr %0, ptr %3, align 8
  store ptr %1, ptr %4, align 8
  %5 = load ptr, ptr %3, align 8
  %6 = getelementptr inbounds %"class.std::queue", ptr %5, i32 0, i32 0
  %7 = load ptr, ptr %4, align 8
  call void @_ZNSt5dequeIhSaIhEE9push_backERKh(ptr noundef nonnull align 8 dereferenceable(80) %6, ptr noundef nonnull align 1 dereferenceable(1) %7)
  ret void
}

; Function Attrs: mustprogress uwtable
define noundef zeroext i1 @_ZN9ns16550_t5storeEmmPKh(ptr noundef nonnull align 8 dereferenceable(128) %0, i64 noundef %1, i64 noundef %2, ptr noundef %3) unnamed_addr #4 align 2 {
  %5 = alloca i1, align 1
  %6 = alloca ptr, align 8
  %7 = alloca i64, align 8
  %8 = alloca i64, align 8
  %9 = alloca ptr, align 8
  %10 = alloca i8, align 1
  %11 = alloca i8, align 1
  %12 = alloca i8, align 1
  store ptr %0, ptr %6, align 8
  store i64 %1, ptr %7, align 8
  store i64 %2, ptr %8, align 8
  store ptr %3, ptr %9, align 8
  %13 = load ptr, ptr %6, align 8
  store i8 1, ptr %11, align 1
  store i8 0, ptr %12, align 1
  %14 = getelementptr inbounds %class.ns16550_t, ptr %13, i32 0, i32 4
  %15 = load i32, ptr %14, align 8
  %16 = zext i32 %15 to i64
  %17 = load i64, ptr %8, align 8
  %18 = icmp ne i64 %16, %17
  br i1 %18, label %19, label %20

19:                                               ; preds = %4
  store i1 false, ptr %5, align 1
  br label %105

20:                                               ; preds = %4
  %21 = load i64, ptr %7, align 8
  %22 = load i64, ptr %8, align 8
  %23 = add i64 %21, %22
  %24 = icmp ugt i64 %23, 4096
  br i1 %24, label %25, label %26

25:                                               ; preds = %20
  store i1 false, ptr %5, align 1
  br label %105

26:                                               ; preds = %20
  %27 = getelementptr inbounds %class.ns16550_t, ptr %13, i32 0, i32 3
  %28 = load i32, ptr %27, align 4
  %29 = load i64, ptr %7, align 8
  %30 = zext i32 %28 to i64
  %31 = lshr i64 %29, %30
  store i64 %31, ptr %7, align 8
  %32 = load i64, ptr %7, align 8
  %33 = and i64 %32, 7
  store i64 %33, ptr %7, align 8
  %34 = load ptr, ptr %9, align 8
  %35 = getelementptr inbounds i8, ptr %34, i64 0
  %36 = load i8, ptr %35, align 1
  store i8 %36, ptr %10, align 1
  %37 = load i64, ptr %7, align 8
  switch i64 %37, label %97 [
    i64 0, label %38
    i64 1, label %67
    i64 2, label %83
    i64 3, label %86
    i64 4, label %89
    i64 5, label %92
    i64 6, label %93
    i64 7, label %94
  ]

38:                                               ; preds = %26
  store i8 1, ptr %12, align 1
  %39 = getelementptr inbounds %class.ns16550_t, ptr %13, i32 0, i32 11
  %40 = load i8, ptr %39, align 1
  %41 = zext i8 %40 to i32
  %42 = and i32 %41, 128
  %43 = icmp ne i32 %42, 0
  br i1 %43, label %44, label %47

44:                                               ; preds = %38
  %45 = load i8, ptr %10, align 1
  %46 = getelementptr inbounds %class.ns16550_t, ptr %13, i32 0, i32 6
  store i8 %45, ptr %46, align 8
  br label %98

47:                                               ; preds = %38
  %48 = getelementptr inbounds %class.ns16550_t, ptr %13, i32 0, i32 12
  %49 = load i8, ptr %48, align 2
  %50 = zext i8 %49 to i32
  %51 = and i32 %50, 16
  %52 = icmp ne i32 %51, 0
  br i1 %52, label %53, label %65

53:                                               ; preds = %47
  %54 = getelementptr inbounds %class.ns16550_t, ptr %13, i32 0, i32 5
  %55 = call noundef i64 @_ZNKSt5queueIhSt5dequeIhSaIhEEE4sizeEv(ptr noundef nonnull align 8 dereferenceable(80) %54)
  %56 = icmp ult i64 %55, 64
  br i1 %56, label %57, label %64

57:                                               ; preds = %53
  %58 = getelementptr inbounds %class.ns16550_t, ptr %13, i32 0, i32 5
  call void @_ZNSt5queueIhSt5dequeIhSaIhEEE4pushERKh(ptr noundef nonnull align 8 dereferenceable(80) %58, ptr noundef nonnull align 1 dereferenceable(1) %10)
  %59 = getelementptr inbounds %class.ns16550_t, ptr %13, i32 0, i32 13
  %60 = load i8, ptr %59, align 1
  %61 = zext i8 %60 to i32
  %62 = or i32 %61, 1
  %63 = trunc i32 %62 to i8
  store i8 %63, ptr %59, align 1
  br label %64

64:                                               ; preds = %57, %53
  br label %98

65:                                               ; preds = %47
  %66 = load i8, ptr %10, align 1
  call void @_ZN9ns16550_t7tx_byteEh(ptr noundef nonnull align 8 dereferenceable(128) %13, i8 noundef zeroext %66)
  br label %98

67:                                               ; preds = %26
  %68 = getelementptr inbounds %class.ns16550_t, ptr %13, i32 0, i32 11
  %69 = load i8, ptr %68, align 1
  %70 = zext i8 %69 to i32
  %71 = and i32 %70, 128
  %72 = icmp ne i32 %71, 0
  br i1 %72, label %79, label %73

73:                                               ; preds = %67
  %74 = load i8, ptr %10, align 1
  %75 = zext i8 %74 to i32
  %76 = and i32 %75, 15
  %77 = trunc i32 %76 to i8
  %78 = getelementptr inbounds %class.ns16550_t, ptr %13, i32 0, i32 9
  store i8 %77, ptr %78, align 1
  br label %82

79:                                               ; preds = %67
  %80 = load i8, ptr %10, align 1
  %81 = getelementptr inbounds %class.ns16550_t, ptr %13, i32 0, i32 7
  store i8 %80, ptr %81, align 1
  br label %82

82:                                               ; preds = %79, %73
  store i8 1, ptr %12, align 1
  br label %98

83:                                               ; preds = %26
  %84 = load i8, ptr %10, align 1
  %85 = getelementptr inbounds %class.ns16550_t, ptr %13, i32 0, i32 10
  store i8 %84, ptr %85, align 4
  store i8 1, ptr %12, align 1
  br label %98

86:                                               ; preds = %26
  %87 = load i8, ptr %10, align 1
  %88 = getelementptr inbounds %class.ns16550_t, ptr %13, i32 0, i32 11
  store i8 %87, ptr %88, align 1
  store i8 1, ptr %12, align 1
  br label %98

89:                                               ; preds = %26
  %90 = load i8, ptr %10, align 1
  %91 = getelementptr inbounds %class.ns16550_t, ptr %13, i32 0, i32 12
  store i8 %90, ptr %91, align 2
  store i8 1, ptr %12, align 1
  br label %98

92:                                               ; preds = %26
  br label %98

93:                                               ; preds = %26
  br label %98

94:                                               ; preds = %26
  %95 = load i8, ptr %10, align 1
  %96 = getelementptr inbounds %class.ns16550_t, ptr %13, i32 0, i32 15
  store i8 %95, ptr %96, align 1
  br label %98

97:                                               ; preds = %26
  store i8 0, ptr %11, align 1
  br label %98

98:                                               ; preds = %97, %94, %93, %92, %89, %86, %83, %82, %65, %64, %44
  %99 = load i8, ptr %12, align 1
  %100 = trunc i8 %99 to i1
  br i1 %100, label %101, label %102

101:                                              ; preds = %98
  call void @_ZN9ns16550_t16update_interruptEv(ptr noundef nonnull align 8 dereferenceable(128) %13)
  br label %102

102:                                              ; preds = %101, %98
  %103 = load i8, ptr %11, align 1
  %104 = trunc i8 %103 to i1
  store i1 %104, ptr %5, align 1
  br label %105

105:                                              ; preds = %102, %25, %19
  %106 = load i1, ptr %5, align 1
  ret i1 %106
}