; Function Attrs: mustprogress uwtable
define noundef zeroext i1 @_ZN9ns16550_t5storeEmmPKh(ptr noundef nonnull align 8 dereferenceable(128) %0, i64 noundef %1, i64 noundef %2, ptr nocapture noundef readonly %3) unnamed_addr #3 align 2 {
  %5 = alloca i8, align 1
  %6 = getelementptr inbounds i8, ptr %0, i64 24
  %7 = load i32, ptr %6, align 8
  %8 = zext i32 %7 to i64
  %.not = icmp eq i64 %8, %2
  %9 = add i64 %2, %1
  %10 = icmp ult i64 %9, 4097
  %or.cond.not = and i1 %10, %.not
  br i1 %or.cond.not, label %11, label %.critedge

11:                                               ; preds = %4
  %12 = getelementptr inbounds i8, ptr %0, i64 20
  %13 = load i32, ptr %12, align 4
  %14 = zext nneg i32 %13 to i64
  %15 = lshr i64 %1, %14
  %16 = and i64 %15, 7
  %17 = load i8, ptr %3, align 1
  store i8 %17, ptr %5, align 1
  switch i64 %16, label %default.unreachable18 [
    i64 0, label %18
    i64 1, label %48
    i64 2, label %56
    i64 3, label %58
    i64 4, label %60
    i64 5, label %.critedge
    i64 6, label %.critedge
    i64 7, label %62
  ]

18:                                               ; preds = %11
  %19 = getelementptr inbounds i8, ptr %0, i64 117
  %20 = load i8, ptr %19, align 1
  %.not14 = icmp sgt i8 %20, -1
  br i1 %.not14, label %23, label %21

21:                                               ; preds = %18
  %22 = getelementptr inbounds i8, ptr %0, i64 112
  store i8 %17, ptr %22, align 8
  br label %64

23:                                               ; preds = %18
  %24 = getelementptr inbounds i8, ptr %0, i64 118
  %25 = load i8, ptr %24, align 2
  %26 = and i8 %25, 16
  %.not15 = icmp eq i8 %26, 0
  br i1 %.not15, label %44, label %27

27:                                               ; preds = %23
  %28 = getelementptr inbounds i8, ptr %0, i64 32
  %29 = tail call noundef i64 @_ZNKSt5queueIhSt5dequeIhSaIhEEE4sizeEv(ptr noundef nonnull align 8 dereferenceable(80) %28)
  %30 = icmp ult i64 %29, 64
  br i1 %30, label %31, label %64

31:                                               ; preds = %27
  %32 = getelementptr inbounds i8, ptr %0, i64 80
  %33 = load ptr, ptr %32, align 8
  %34 = getelementptr inbounds i8, ptr %0, i64 96
  %35 = load ptr, ptr %34, align 8
  %36 = getelementptr inbounds i8, ptr %35, i64 -1
  %.not.i.i = icmp eq ptr %33, %36
  br i1 %.not.i.i, label %40, label %37

37:                                               ; preds = %31
  store i8 %17, ptr %33, align 1
  %38 = load ptr, ptr %32, align 8
  %39 = getelementptr inbounds i8, ptr %38, i64 1
  store ptr %39, ptr %32, align 8
  br label %_ZNSt5queueIhSt5dequeIhSaIhEEE4pushERKh.exit

40:                                               ; preds = %31
  call void @_ZNSt5dequeIhSaIhEE16_M_push_back_auxIJRKhEEEvDpOT_(ptr noundef nonnull align 8 dereferenceable(80) %28, ptr noundef nonnull align 1 dereferenceable(1) %5)
  br label %_ZNSt5queueIhSt5dequeIhSaIhEEE4pushERKh.exit

_ZNSt5queueIhSt5dequeIhSaIhEEE4pushERKh.exit:     ; preds = %37, %40
  %41 = getelementptr inbounds i8, ptr %0, i64 119
  %42 = load i8, ptr %41, align 1
  %43 = or i8 %42, 1
  store i8 %43, ptr %41, align 1
  br label %64

44:                                               ; preds = %23
  %45 = getelementptr inbounds i8, ptr %0, i64 119
  %46 = load i8, ptr %45, align 1
  %47 = or i8 %46, 96
  store i8 %47, ptr %45, align 1
  tail call void @_ZN20canonical_terminal_t5writeEc(i8 noundef signext %17)
  br label %64

48:                                               ; preds = %11
  %49 = getelementptr inbounds i8, ptr %0, i64 117
  %50 = load i8, ptr %49, align 1
  %.not13 = icmp sgt i8 %50, -1
  br i1 %.not13, label %51, label %54

51:                                               ; preds = %48
  %52 = and i8 %17, 15
  %53 = getelementptr inbounds i8, ptr %0, i64 115
  store i8 %52, ptr %53, align 1
  br label %64

54:                                               ; preds = %48
  %55 = getelementptr inbounds i8, ptr %0, i64 113
  store i8 %17, ptr %55, align 1
  br label %64

56:                                               ; preds = %11
  %57 = getelementptr inbounds i8, ptr %0, i64 116
  store i8 %17, ptr %57, align 4
  br label %64

58:                                               ; preds = %11
  %59 = getelementptr inbounds i8, ptr %0, i64 117
  store i8 %17, ptr %59, align 1
  br label %64

60:                                               ; preds = %11
  %61 = getelementptr inbounds i8, ptr %0, i64 118
  store i8 %17, ptr %61, align 2
  br label %64

62:                                               ; preds = %11
  %63 = getelementptr inbounds i8, ptr %0, i64 121
  store i8 %17, ptr %63, align 1
  br label %.critedge

default.unreachable18:                            ; preds = %11
  unreachable

64:                                               ; preds = %21, %44, %56, %58, %60, %_ZNSt5queueIhSt5dequeIhSaIhEEE4pushERKh.exit, %27, %54, %51
  call void @_ZN9ns16550_t16update_interruptEv(ptr noundef nonnull align 8 dereferenceable(128) %0)
  br label %.critedge

.critedge:                                        ; preds = %64, %11, %11, %62, %4
  ret i1 %or.cond.not
}